	.file	"recursive.c"
	.text
	.globl	febo_recursive
	.type	febo_recursive, @function
febo_recursive:
.LFB0:
	.cfi_startproc
	pushq	%rbp
	.cfi_def_cfa_offset 16
	.cfi_offset 6, -16
	movq	%rsp, %rbp
	.cfi_def_cfa_register 6
	pushq	%rbx
	subq	$24, %rsp
	.cfi_offset 3, -24
	movl	%edi, -20(%rbp)
	cmpl	$0, -20(%rbp)
	jne	.L2
	movl	$0, %eax
	jmp	.L3
.L2:
	cmpl	$1, -20(%rbp)
	jne	.L4
	movl	$1, %eax
	jmp	.L3
.L4:
	movl	-20(%rbp), %eax
	subl	$1, %eax
	movl	%eax, %edi
	call	febo_recursive
	movl	%eax, %ebx
	movl	-20(%rbp), %eax
	subl	$2, %eax
	movl	%eax, %edi
	call	febo_recursive
	addl	%ebx, %eax
.L3:
	addq	$24, %rsp
	popq	%rbx
	popq	%rbp
	.cfi_def_cfa 7, 8
	ret
	.cfi_endproc
.LFE0:
	.size	febo_recursive, .-febo_recursive
	.globl	sum_array_recursive
	.type	sum_array_recursive, @function
sum_array_recursive:
.LFB1:
	.cfi_startproc
	pushq	%rbp
	.cfi_def_cfa_offset 16
	.cfi_offset 6, -16
	movq	%rsp, %rbp
	.cfi_def_cfa_register 6
	pushq	%rbx
	subq	$24, %rsp
	.cfi_offset 3, -24
	movq	%rdi, -24(%rbp)
	movl	%esi, -28(%rbp)
	cmpl	$0, -28(%rbp)
	jne	.L6
	movl	$0, %eax
	jmp	.L7
.L6:
	movl	-28(%rbp), %eax
	cltq
	salq	$2, %rax
	leaq	-4(%rax), %rdx
	movq	-24(%rbp), %rax
	addq	%rdx, %rax
	movl	(%rax), %ebx
	movl	-28(%rbp), %eax
	leal	-1(%rax), %edx
	movq	-24(%rbp), %rax
	movl	%edx, %esi
	movq	%rax, %rdi
	call	sum_array_recursive
	addl	%ebx, %eax
.L7:
	addq	$24, %rsp
	popq	%rbx
	popq	%rbp
	.cfi_def_cfa 7, 8
	ret
	.cfi_endproc
.LFE1:
	.size	sum_array_recursive, .-sum_array_recursive
	.ident	"GCC: (Ubuntu 7.3.0-27ubuntu1~18.04) 7.3.0"
	.section	.note.GNU-stack,"",@progbits
